Certificate:
    Data:
        Version: 3 (0x2)
        Serial Number: 4 (0x4)
    Signature Algorithm: sha256WithRSAEncryption
        Issuer: C=ES, ST=Murcia, L=Murcia, O=UMU, OU=alterra0910, CN=ca.alterra0910.org
        Validity
            Not Before: May  7 15:09:31 2023 GMT
            Not After : May  6 15:09:31 2025 GMT
        Subject: C=ES, ST=Murcia, O=UMU, L=Murcia, OU=alterra0910, CN=server.alterra0910.org
        Subject Public Key Info:
            Public Key Algorithm: rsaEncryption
                Public-Key: (2048 bit)
                Modulus:
                    00:bc:df:2d:92:13:c2:ac:00:4d:fe:61:0d:9a:5c:
                    e6:44:49:3c:74:1c:83:30:7a:bb:10:6f:6a:34:a0:
                    67:2c:f4:a1:5c:d3:89:1b:90:a6:06:63:52:08:da:
                    5f:8b:b6:6b:5d:9d:15:65:d3:ab:4e:15:f4:a7:18:
                    2f:f5:aa:22:cb:58:35:e9:d0:64:d8:4d:bb:89:aa:
                    f2:b5:69:2e:ce:3b:7e:10:b6:3e:bc:ad:c5:6d:ed:
                    e6:fa:71:81:0f:82:ba:db:68:94:36:96:51:13:d0:
                    f9:3b:57:1f:ff:3b:37:98:eb:1c:33:a5:7d:cb:6b:
                    0e:28:f9:2a:36:9c:8a:6f:c5:39:b6:84:72:7b:cc:
                    6d:8f:42:95:e2:1a:26:33:fb:03:24:c6:00:11:d0:
                    d3:b3:2c:90:f9:dc:b6:93:2c:df:16:81:ca:76:8b:
                    81:ac:bc:9b:d1:9f:aa:04:8b:c2:ba:6e:a7:bd:84:
                    ef:6a:14:b7:05:82:8f:9e:a9:12:c3:4e:d7:4a:d9:
                    0c:5b:53:9d:2a:75:df:dd:cf:73:15:3b:02:4f:ed:
                    b0:dd:02:69:33:48:b7:3e:d2:4e:5c:c7:79:e5:0a:
                    ab:b9:91:99:2b:5a:c3:06:a1:2c:fd:92:1e:31:d1:
                    c6:4f:5d:f1:bc:b3:49:c2:95:6b:fa:cb:60:ed:ae:
                    df:89
                Exponent: 65537 (0x10001)
        X509v3 extensions:
            X509v3 Basic Constraints: 
                CA:FALSE
            Netscape Comment: 
                OpenSSL Generated Certificate
            X509v3 Subject Key Identifier: 
                D4:93:31:62:0C:F0:8C:D8:54:12:32:20:4A:29:60:13:6D:3D:88:28
            X509v3 Authority Key Identifier: 
                keyid:54:C5:20:5C:B0:9D:44:BA:1D:AF:55:BE:A0:EC:BA:7A:49:A1:6A:C9

    Signature Algorithm: sha256WithRSAEncryption
         7e:a8:f0:f6:c5:66:9a:91:0a:78:15:f7:37:2d:d9:82:c4:1d:
         48:5d:38:77:ed:c2:16:9f:e5:7a:5a:b9:16:d5:6a:ef:c2:68:
         63:ab:20:b8:cf:3a:dc:65:22:95:84:cc:c7:36:79:56:ca:0a:
         30:38:6c:67:62:26:eb:ab:32:87:11:bb:7c:f5:68:62:f8:56:
         0f:0c:b9:5a:0b:27:7f:d3:2c:09:cf:bc:1d:8e:73:fc:d7:1f:
         20:5e:54:27:ea:0e:c4:05:f9:79:9c:88:89:69:14:03:64:0c:
         ad:74:ac:ff:77:dd:0d:45:00:d3:08:40:82:9b:cd:6f:c1:11:
         93:f3:9b:1e:e6:79:ab:6e:10:7a:7f:e6:a3:54:cf:ab:9d:50:
         ac:84:55:0e:4b:83:e3:b2:81:01:6d:b3:ee:47:0e:6f:02:62:
         11:3e:b6:c7:b7:2c:e4:bc:37:66:65:3f:49:54:18:61:14:cf:
         6b:8e:a7:26:dd:5e:f2:65:ee:3e:3d:79:45:1c:93:53:52:48:
         61:74:16:b5:65:ec:f0:93:f1:11:99:7a:98:d9:34:3e:b0:bf:
         23:5c:50:a6:e4:ae:51:04:ae:16:49:7a:3b:de:bd:1e:10:bb:
         e6:e0:58:8f:61:51:88:3f:75:ef:16:36:3b:86:98:6b:e6:17:
         30:a3:1c:9e
-----BEGIN CERTIFICATE-----
MIID2jCCAsKgAwIBAgIBBDANBgkqhkiG9w0BAQsFADBwMQswCQYDVQQGEwJFUzEP
MA0GA1UECAwGTXVyY2lhMQ8wDQYDVQQHDAZNdXJjaWExDDAKBgNVBAoMA1VNVTEU
MBIGA1UECwwLYWx0ZXJyYTA5MTAxGzAZBgNVBAMMEmNhLmFsdGVycmEwOTEwLm9y
ZzAeFw0yMzA1MDcxNTA5MzFaFw0yNTA1MDYxNTA5MzFaMHQxCzAJBgNVBAYTAkVT
MQ8wDQYDVQQIDAZNdXJjaWExDDAKBgNVBAoMA1VNVTEPMA0GA1UEBwwGTXVyY2lh
MRQwEgYDVQQLDAthbHRlcnJhMDkxMDEfMB0GA1UEAwwWc2VydmVyLmFsdGVycmEw
OTEwLm9yZzCCASIwDQYJKoZIhvcNAQEBBQADggEPADCCAQoCggEBALzfLZITwqwA
Tf5hDZpc5kRJPHQcgzB6uxBvajSgZyz0oVzTiRuQpgZjUgjaX4u2a12dFWXTq04V
9KcYL/WqIstYNenQZNhNu4mq8rVpLs47fhC2PrytxW3t5vpxgQ+CuttolDaWURPQ
+TtXH/87N5jrHDOlfctrDij5Kjacim/FObaEcnvMbY9CleIaJjP7AyTGABHQ07Ms
kPnctpMs3xaBynaLgay8m9GfqgSLwrpup72E72oUtwWCj56pEsNO10rZDFtTnSp1
393PcxU7Ak/tsN0CaTNItz7STlzHeeUKq7mRmStawwahLP2SHjHRxk9d8byzScKV
a/rLYO2u34kCAwEAAaN7MHkwCQYDVR0TBAIwADAsBglghkgBhvhCAQ0EHxYdT3Bl
blNTTCBHZW5lcmF0ZWQgQ2VydGlmaWNhdGUwHQYDVR0OBBYEFNSTMWIM8IzYVBIy
IEopYBNtPYgoMB8GA1UdIwQYMBaAFFTFIFywnUS6Ha9VvqDsunpJoWrJMA0GCSqG
SIb3DQEBCwUAA4IBAQB+qPD2xWaakQp4Ffc3LdmCxB1IXTh37cIWn+V6WrkW1Wrv
wmhjqyC4zzrcZSKVhMzHNnlWygowOGxnYibrqzKHEbt89Whi+FYPDLlaCyd/0ywJ
z7wdjnP81x8gXlQn6g7EBfl5nIiJaRQDZAytdKz/d90NRQDTCECCm81vwRGT85se
5nmrbhB6f+ajVM+rnVCshFUOS4PjsoEBbbPuRw5vAmIRPrbHtyzkvDdmZT9JVBhh
FM9rjqcm3V7yZe4+PXlFHJNTUkhhdBa1Zezwk/ERmXqY2TQ+sL8jXFCm5K5RBK4W
SXo73r0eELvm4FiPYVGIP3XvFjY7hphr5hcwoxye
-----END CERTIFICATE-----
