Certificate:
    Data:
        Version: 3 (0x2)
        Serial Number: 1 (0x1)
    Signature Algorithm: sha256WithRSAEncryption
        Issuer: C=ES, ST=Murcia, L=Murcia, O=UMU, OU=alterra0910, CN=ca.alterra0910.org
        Validity
            Not Before: May  7 14:54:25 2023 GMT
            Not After : May  6 14:54:25 2025 GMT
        Subject: C=ES, ST=Murcia, O=UMU, L=Murcia, OU=alterra0910, CN=www.alterra0910.org
        Subject Public Key Info:
            Public Key Algorithm: rsaEncryption
                Public-Key: (2048 bit)
                Modulus:
                    00:b4:82:d7:bf:66:fc:25:fa:82:3f:d3:48:95:a2:
                    66:78:2b:d5:e6:a9:85:cb:ca:e5:bf:73:ed:6f:68:
                    ea:37:bc:56:a1:dc:02:e0:c6:2b:23:07:00:27:8f:
                    c9:6e:fa:8e:3c:51:0d:2d:9c:94:cf:69:b7:22:0a:
                    a3:69:ce:e4:2c:bb:c8:32:64:2a:47:fa:99:24:f6:
                    29:dd:30:66:06:40:ff:0b:0d:b1:9d:03:19:3e:b6:
                    19:f9:e0:c2:3a:51:f3:04:f3:01:27:79:11:ab:e4:
                    3c:04:1b:4e:21:ce:6c:98:36:28:bf:ac:4f:08:e7:
                    c7:a0:e5:ed:37:fa:d1:ee:5a:90:77:fe:80:f4:fc:
                    af:e8:b9:8a:cb:92:99:39:aa:8e:8e:d1:ff:60:df:
                    a8:6f:8e:98:0c:07:ba:d0:06:e6:d4:5f:b1:3f:3b:
                    c2:7c:61:79:d7:04:cf:71:d1:3f:ac:8d:ef:98:25:
                    36:1a:f2:1b:f4:8e:0b:3d:59:19:f5:c2:f1:7b:97:
                    92:83:06:b5:40:e1:3f:f9:b9:2a:ff:48:d2:8f:17:
                    db:24:70:51:16:db:6e:64:9b:58:11:6c:2d:5e:eb:
                    5d:1b:7b:dd:10:6d:2d:92:7b:22:df:77:9c:df:e4:
                    38:41:14:47:5b:1c:6f:dc:ca:0c:82:20:a8:52:ef:
                    d2:61
                Exponent: 65537 (0x10001)
        X509v3 extensions:
            X509v3 Basic Constraints: 
                CA:FALSE
            Netscape Comment: 
                OpenSSL Generated Certificate
            X509v3 Subject Key Identifier: 
                A3:97:C5:EC:E7:B4:00:B8:DD:08:63:F9:2A:A5:3F:F8:38:C4:26:11
            X509v3 Authority Key Identifier: 
                keyid:54:C5:20:5C:B0:9D:44:BA:1D:AF:55:BE:A0:EC:BA:7A:49:A1:6A:C9

    Signature Algorithm: sha256WithRSAEncryption
         16:db:f8:40:7e:08:8e:15:49:1c:7b:c6:77:15:fb:db:c2:a5:
         34:92:1a:6e:c1:ee:9a:17:69:48:7c:76:d0:a7:77:93:eb:ef:
         71:42:e2:02:2a:ef:30:5a:ce:43:06:00:ed:ad:a8:4e:48:f1:
         22:82:a2:fd:21:46:a6:62:60:1f:16:2c:88:7f:55:23:b5:ba:
         6e:75:d1:c7:b0:40:a6:5b:d8:b3:3e:67:7d:6a:c6:7e:df:44:
         64:f4:19:c8:bd:20:47:c6:55:30:3a:31:d0:27:ed:33:bf:b8:
         22:1d:5b:af:a6:4e:c2:ab:3e:51:88:7c:19:82:f8:12:f2:d3:
         28:36:28:5a:7a:22:6e:fd:18:e0:42:cd:ae:2d:14:6e:92:81:
         b2:c5:8d:65:e1:b0:51:c8:63:06:95:16:83:a6:13:4a:e1:3d:
         f9:45:24:6a:c3:04:34:e2:92:8d:b0:43:b7:4c:43:77:80:b8:
         75:7d:d8:86:9a:f8:b4:a7:2c:e0:0c:91:7b:b9:05:09:aa:88:
         19:e1:98:6f:1e:2c:15:d2:40:99:a3:a9:06:e6:73:f7:c4:53:
         cd:2d:0d:01:37:7d:24:b5:b0:e0:c9:a0:91:61:75:73:1c:ed:
         d7:e5:8d:e0:28:17:08:74:9c:15:a0:c3:57:eb:4d:63:fa:c3:
         4b:51:54:30
-----BEGIN CERTIFICATE-----
MIID1zCCAr+gAwIBAgIBATANBgkqhkiG9w0BAQsFADBwMQswCQYDVQQGEwJFUzEP
MA0GA1UECAwGTXVyY2lhMQ8wDQYDVQQHDAZNdXJjaWExDDAKBgNVBAoMA1VNVTEU
MBIGA1UECwwLYWx0ZXJyYTA5MTAxGzAZBgNVBAMMEmNhLmFsdGVycmEwOTEwLm9y
ZzAeFw0yMzA1MDcxNDU0MjVaFw0yNTA1MDYxNDU0MjVaMHExCzAJBgNVBAYTAkVT
MQ8wDQYDVQQIDAZNdXJjaWExDDAKBgNVBAoMA1VNVTEPMA0GA1UEBwwGTXVyY2lh
MRQwEgYDVQQLDAthbHRlcnJhMDkxMDEcMBoGA1UEAwwTd3d3LmFsdGVycmEwOTEw
Lm9yZzCCASIwDQYJKoZIhvcNAQEBBQADggEPADCCAQoCggEBALSC179m/CX6gj/T
SJWiZngr1eaphcvK5b9z7W9o6je8VqHcAuDGKyMHACePyW76jjxRDS2clM9ptyIK
o2nO5Cy7yDJkKkf6mST2Kd0wZgZA/wsNsZ0DGT62GfngwjpR8wTzASd5EavkPAQb
TiHObJg2KL+sTwjnx6Dl7Tf60e5akHf+gPT8r+i5isuSmTmqjo7R/2DfqG+OmAwH
utAG5tRfsT87wnxhedcEz3HRP6yN75glNhryG/SOCz1ZGfXC8XuXkoMGtUDhP/m5
Kv9I0o8X2yRwURbbbmSbWBFsLV7rXRt73RBtLZJ7It93nN/kOEEUR1scb9zKDIIg
qFLv0mECAwEAAaN7MHkwCQYDVR0TBAIwADAsBglghkgBhvhCAQ0EHxYdT3BlblNT
TCBHZW5lcmF0ZWQgQ2VydGlmaWNhdGUwHQYDVR0OBBYEFKOXxezntAC43Qhj+Sql
P/g4xCYRMB8GA1UdIwQYMBaAFFTFIFywnUS6Ha9VvqDsunpJoWrJMA0GCSqGSIb3
DQEBCwUAA4IBAQAW2/hAfgiOFUkce8Z3FfvbwqU0khpuwe6aF2lIfHbQp3eT6+9x
QuICKu8wWs5DBgDtrahOSPEigqL9IUamYmAfFiyIf1UjtbpuddHHsECmW9izPmd9
asZ+30Rk9BnIvSBHxlUwOjHQJ+0zv7giHVuvpk7Cqz5RiHwZgvgS8tMoNihaeiJu
/RjgQs2uLRRukoGyxY1l4bBRyGMGlRaDphNK4T35RSRqwwQ04pKNsEO3TEN3gLh1
fdiGmvi0pyzgDJF7uQUJqogZ4ZhvHiwV0kCZo6kG5nP3xFPNLQ0BN30ktbDgyaCR
YXVzHO3X5Y3gKBcIdJwVoMNX601j+sNLUVQw
-----END CERTIFICATE-----
