Certificate:
    Data:
        Version: 3 (0x2)
        Serial Number: 3 (0x3)
    Signature Algorithm: sha256WithRSAEncryption
        Issuer: C=ES, ST=Murcia, L=Murcia, O=UMU, OU=alterra0910, CN=ca.alterra0910.org
        Validity
            Not Before: May  7 15:07:53 2023 GMT
            Not After : May  6 15:07:53 2025 GMT
        Subject: C=ES, ST=Murcia, O=UMU, L=Murcia, OU=alterra0910, CN=client.alterra0910.org
        Subject Public Key Info:
            Public Key Algorithm: rsaEncryption
                Public-Key: (2048 bit)
                Modulus:
                    00:ac:fe:e7:65:5c:23:75:24:99:a5:4c:3e:80:5c:
                    4b:64:e5:da:75:e0:dd:e3:6c:f6:1f:76:65:da:30:
                    42:ef:cc:f8:b6:c3:dd:fe:9b:bd:bf:e3:2f:01:8d:
                    3e:50:c7:64:09:87:80:09:80:0e:7d:16:65:56:92:
                    d2:ee:a0:58:9e:f1:72:39:c8:a5:76:4f:7e:de:ce:
                    41:80:fe:64:c7:ef:47:e7:f3:e2:0a:f5:25:75:47:
                    7d:69:2f:b3:e4:ae:9e:58:22:68:34:a5:6d:f8:8e:
                    79:2d:20:11:52:15:7c:7f:1d:cd:f6:db:4e:fa:86:
                    9e:2c:f4:85:19:c8:f3:d8:01:a5:e3:b0:97:77:f9:
                    27:10:07:55:04:06:1a:b9:40:52:6b:a8:b0:af:96:
                    18:1f:81:30:da:6c:d1:25:45:ae:aa:28:a7:fe:58:
                    2b:69:cb:e6:82:a2:65:f9:7e:37:ea:74:66:16:a9:
                    1d:47:4b:f4:9a:7b:a8:fe:78:80:a8:d7:c8:31:49:
                    af:70:b3:39:9e:d1:c0:e9:e8:7d:f3:fe:fc:19:e1:
                    83:5a:7d:76:9a:a6:c7:62:84:e7:b5:03:63:43:8d:
                    81:66:4b:16:2b:35:4b:4e:e8:47:06:7c:2e:d5:4c:
                    7d:e5:24:81:a4:47:ba:b8:b0:4a:23:e7:9c:64:64:
                    ae:41
                Exponent: 65537 (0x10001)
        X509v3 extensions:
            X509v3 Basic Constraints: 
                CA:FALSE
            Netscape Comment: 
                OpenSSL Generated Certificate
            X509v3 Subject Key Identifier: 
                76:6A:42:EC:F8:6D:15:6E:3F:55:60:25:29:58:BE:61:3F:BA:88:C2
            X509v3 Authority Key Identifier: 
                keyid:54:C5:20:5C:B0:9D:44:BA:1D:AF:55:BE:A0:EC:BA:7A:49:A1:6A:C9

    Signature Algorithm: sha256WithRSAEncryption
         ab:3c:53:b0:41:90:96:18:a4:09:34:18:dc:64:a5:9d:d6:94:
         f1:a4:8d:0b:d9:25:56:ef:54:2e:ad:d9:74:5f:5a:dc:4f:5b:
         74:2b:98:8c:8d:2d:e8:7f:43:d3:b6:64:e2:a4:da:4c:69:ba:
         c0:f5:90:d8:1d:5b:1f:04:d8:9a:ba:5d:99:a5:f3:2f:74:99:
         75:ed:7b:24:5a:9b:7b:12:bc:24:00:a1:4b:3c:8f:3f:cc:66:
         42:1b:32:9a:51:8e:46:93:9a:6e:21:04:8a:ac:53:44:9e:63:
         a0:01:89:e3:e5:85:9e:73:b1:d5:6a:80:65:c6:1d:70:3a:38:
         8f:7e:cc:47:96:c4:d1:e6:49:5d:d5:e6:21:5a:21:16:39:b6:
         26:bc:8a:99:68:cd:ce:0f:8d:31:9d:60:36:49:ad:bd:bd:52:
         b9:a8:82:72:29:b1:9e:10:00:83:b6:0c:9e:d1:a4:93:7c:e0:
         10:fc:a5:02:ef:ac:67:97:38:0c:0b:31:8a:2c:e8:19:45:88:
         37:aa:4e:df:83:3a:77:e0:3e:3b:1f:0a:92:bc:67:e5:ce:fb:
         8e:6a:2d:1e:10:b4:7e:10:76:15:c6:19:0a:40:34:da:da:db:
         0f:26:7a:bc:1c:14:0b:a1:b6:2c:12:af:15:72:ae:8c:ee:28:
         dc:b2:99:1a
-----BEGIN CERTIFICATE-----
MIID2jCCAsKgAwIBAgIBAzANBgkqhkiG9w0BAQsFADBwMQswCQYDVQQGEwJFUzEP
MA0GA1UECAwGTXVyY2lhMQ8wDQYDVQQHDAZNdXJjaWExDDAKBgNVBAoMA1VNVTEU
MBIGA1UECwwLYWx0ZXJyYTA5MTAxGzAZBgNVBAMMEmNhLmFsdGVycmEwOTEwLm9y
ZzAeFw0yMzA1MDcxNTA3NTNaFw0yNTA1MDYxNTA3NTNaMHQxCzAJBgNVBAYTAkVT
MQ8wDQYDVQQIDAZNdXJjaWExDDAKBgNVBAoMA1VNVTEPMA0GA1UEBwwGTXVyY2lh
MRQwEgYDVQQLDAthbHRlcnJhMDkxMDEfMB0GA1UEAwwWY2xpZW50LmFsdGVycmEw
OTEwLm9yZzCCASIwDQYJKoZIhvcNAQEBBQADggEPADCCAQoCggEBAKz+52VcI3Uk
maVMPoBcS2Tl2nXg3eNs9h92ZdowQu/M+LbD3f6bvb/jLwGNPlDHZAmHgAmADn0W
ZVaS0u6gWJ7xcjnIpXZPft7OQYD+ZMfvR+fz4gr1JXVHfWkvs+SunlgiaDSlbfiO
eS0gEVIVfH8dzfbbTvqGniz0hRnI89gBpeOwl3f5JxAHVQQGGrlAUmuosK+WGB+B
MNps0SVFrqoop/5YK2nL5oKiZfl+N+p0ZhapHUdL9Jp7qP54gKjXyDFJr3CzOZ7R
wOnoffP+/Bnhg1p9dpqmx2KE57UDY0ONgWZLFis1S07oRwZ8LtVMfeUkgaRHuriw
SiPnnGRkrkECAwEAAaN7MHkwCQYDVR0TBAIwADAsBglghkgBhvhCAQ0EHxYdT3Bl
blNTTCBHZW5lcmF0ZWQgQ2VydGlmaWNhdGUwHQYDVR0OBBYEFHZqQuz4bRVuP1Vg
JSlYvmE/uojCMB8GA1UdIwQYMBaAFFTFIFywnUS6Ha9VvqDsunpJoWrJMA0GCSqG
SIb3DQEBCwUAA4IBAQCrPFOwQZCWGKQJNBjcZKWd1pTxpI0L2SVW71Qurdl0X1rc
T1t0K5iMjS3of0PTtmTipNpMabrA9ZDYHVsfBNiaul2ZpfMvdJl17XskWpt7Erwk
AKFLPI8/zGZCGzKaUY5Gk5puIQSKrFNEnmOgAYnj5YWec7HVaoBlxh1wOjiPfsxH
lsTR5kld1eYhWiEWObYmvIqZaM3OD40xnWA2Sa29vVK5qIJyKbGeEACDtgye0aST
fOAQ/KUC76xnlzgMCzGKLOgZRYg3qk7fgzp34D47HwqSvGflzvuOai0eELR+EHYV
xhkKQDTa2tsPJnq8HBQLobYsEq8Vcq6M7ijcspka
-----END CERTIFICATE-----
