Certificate:
    Data:
        Version: 3 (0x2)
        Serial Number: 5 (0x5)
    Signature Algorithm: sha256WithRSAEncryption
        Issuer: C=ES, ST=Murcia, L=Murcia, O=UMU, OU=alterra0910, CN=ca.alterra0910.org
        Validity
            Not Before: May  7 15:11:26 2023 GMT
            Not After : May  6 15:11:26 2025 GMT
        Subject: C=ES, ST=Murcia, O=UMU, L=Murcia, OU=alterra0910, CN=dns-2.alterra0910.org
        Subject Public Key Info:
            Public Key Algorithm: rsaEncryption
                Public-Key: (2048 bit)
                Modulus:
                    00:c2:9d:3b:04:f0:50:fd:07:bf:0b:cb:6e:ba:19:
                    7a:cc:03:eb:29:ac:04:36:ec:a8:af:34:7d:07:bb:
                    57:61:59:6d:ae:74:21:3c:58:fd:5d:80:65:f7:c4:
                    20:33:0d:cb:1f:a3:78:7f:6f:12:55:5a:e4:4f:01:
                    4f:a8:0c:54:b0:41:87:9d:6f:cf:e8:80:7d:19:8d:
                    b0:f2:41:3b:d9:c0:a3:d9:47:ab:a5:df:4d:a2:38:
                    0e:a7:38:4a:b5:84:5b:a6:3a:73:a9:3a:9e:59:28:
                    1c:81:77:de:c0:e8:81:c5:1f:3c:fb:41:1d:3d:ff:
                    ea:b8:03:03:45:68:36:bf:5f:04:9b:eb:86:0d:28:
                    6c:1e:50:73:fc:95:be:39:e3:8b:95:d8:13:2f:bf:
                    27:4b:c8:9c:e3:70:2b:66:5f:a9:5c:9c:90:1f:7b:
                    23:78:c7:88:db:9c:f1:ca:0f:0d:ba:b9:a5:e4:eb:
                    92:e8:9d:dd:ac:ab:27:6f:01:7b:e4:61:0a:37:72:
                    5d:92:61:97:a6:bf:12:91:63:90:fd:e8:1c:29:95:
                    f7:89:7b:98:12:da:00:5e:68:68:7b:bd:c9:d6:02:
                    01:07:19:d8:b7:54:3a:9c:16:16:13:36:0b:1a:9d:
                    1b:7f:d2:6c:ec:7a:cf:e1:3b:20:06:6f:e0:27:16:
                    d1:fd
                Exponent: 65537 (0x10001)
        X509v3 extensions:
            X509v3 Basic Constraints: 
                CA:FALSE
            Netscape Comment: 
                OpenSSL Generated Certificate
            X509v3 Subject Key Identifier: 
                B9:52:2A:84:7D:B0:66:EC:DF:53:C6:11:FA:34:C5:C7:5F:EF:9C:05
            X509v3 Authority Key Identifier: 
                keyid:54:C5:20:5C:B0:9D:44:BA:1D:AF:55:BE:A0:EC:BA:7A:49:A1:6A:C9

    Signature Algorithm: sha256WithRSAEncryption
         54:e4:22:65:58:03:cb:1a:15:27:41:15:c8:47:08:46:30:3b:
         e4:18:c0:83:7a:1c:7f:8a:e9:26:3f:11:14:fe:70:12:6d:fd:
         7f:ed:4e:50:85:f8:26:40:b6:c5:e3:e4:c0:36:ca:84:00:e3:
         a1:ba:63:6d:76:89:fb:10:b1:90:58:7e:97:1d:72:f8:62:01:
         01:67:87:99:9a:64:e6:c6:ed:d7:85:39:e3:24:ea:10:14:c5:
         90:cf:d3:ac:a0:de:7d:85:72:40:bf:70:e2:41:83:62:ff:4d:
         40:59:1d:2c:07:75:97:9a:80:11:3b:5d:78:3b:33:a1:7b:4d:
         a8:20:fb:92:67:0c:02:53:cc:14:a9:f2:12:92:5e:d5:24:ee:
         5c:0f:95:49:31:99:f8:71:c5:44:97:ae:2a:68:ce:40:ab:92:
         d8:cb:c1:61:04:17:a1:2b:06:e1:53:20:a2:6f:99:2a:54:f8:
         0c:26:8f:d1:04:af:42:df:03:54:49:cd:75:69:ef:8a:b2:d3:
         c1:71:d5:43:b6:15:b3:23:0b:a2:43:a9:25:5b:5b:a3:d0:09:
         f5:fd:4c:b8:f0:05:bc:ee:38:94:d0:d7:6c:af:58:75:b7:53:
         8f:97:44:5b:e0:e8:ad:02:d7:1f:7d:39:3c:15:0a:6a:70:a8:
         b6:c6:71:fc
-----BEGIN CERTIFICATE-----
MIID2TCCAsGgAwIBAgIBBTANBgkqhkiG9w0BAQsFADBwMQswCQYDVQQGEwJFUzEP
MA0GA1UECAwGTXVyY2lhMQ8wDQYDVQQHDAZNdXJjaWExDDAKBgNVBAoMA1VNVTEU
MBIGA1UECwwLYWx0ZXJyYTA5MTAxGzAZBgNVBAMMEmNhLmFsdGVycmEwOTEwLm9y
ZzAeFw0yMzA1MDcxNTExMjZaFw0yNTA1MDYxNTExMjZaMHMxCzAJBgNVBAYTAkVT
MQ8wDQYDVQQIDAZNdXJjaWExDDAKBgNVBAoMA1VNVTEPMA0GA1UEBwwGTXVyY2lh
MRQwEgYDVQQLDAthbHRlcnJhMDkxMDEeMBwGA1UEAwwVZG5zLTIuYWx0ZXJyYTA5
MTAub3JnMIIBIjANBgkqhkiG9w0BAQEFAAOCAQ8AMIIBCgKCAQEAwp07BPBQ/Qe/
C8tuuhl6zAPrKawENuyorzR9B7tXYVltrnQhPFj9XYBl98QgMw3LH6N4f28SVVrk
TwFPqAxUsEGHnW/P6IB9GY2w8kE72cCj2Uerpd9NojgOpzhKtYRbpjpzqTqeWSgc
gXfewOiBxR88+0EdPf/quAMDRWg2v18Em+uGDShsHlBz/JW+OeOLldgTL78nS8ic
43ArZl+pXJyQH3sjeMeI25zxyg8Nurml5OuS6J3drKsnbwF75GEKN3JdkmGXpr8S
kWOQ/egcKZX3iXuYEtoAXmhoe73J1gIBBxnYt1Q6nBYWEzYLGp0bf9Js7HrP4Tsg
Bm/gJxbR/QIDAQABo3sweTAJBgNVHRMEAjAAMCwGCWCGSAGG+EIBDQQfFh1PcGVu
U1NMIEdlbmVyYXRlZCBDZXJ0aWZpY2F0ZTAdBgNVHQ4EFgQUuVIqhH2wZuzfU8YR
+jTFx1/vnAUwHwYDVR0jBBgwFoAUVMUgXLCdRLodr1W+oOy6ekmhaskwDQYJKoZI
hvcNAQELBQADggEBAFTkImVYA8saFSdBFchHCEYwO+QYwIN6HH+K6SY/ERT+cBJt
/X/tTlCF+CZAtsXj5MA2yoQA46G6Y212ifsQsZBYfpcdcvhiAQFnh5maZObG7deF
OeMk6hAUxZDP06yg3n2FckC/cOJBg2L/TUBZHSwHdZeagBE7XXg7M6F7Tagg+5Jn
DAJTzBSp8hKSXtUk7lwPlUkxmfhxxUSXripozkCrktjLwWEEF6ErBuFTIKJvmSpU
+Awmj9EEr0LfA1RJzXVp74qy08Fx1UO2FbMjC6JDqSVbW6PQCfX9TLjwBbzuOJTQ
12yvWHW3U4+XRFvg6K0C1x99OTwVCmpwqLbGcfw=
-----END CERTIFICATE-----
