Certificate:
    Data:
        Version: 3 (0x2)
        Serial Number: 2 (0x2)
    Signature Algorithm: sha256WithRSAEncryption
        Issuer: C=ES, ST=Murcia, L=Murcia, O=UMU, OU=alterra0910, CN=ca.alterra0910.org
        Validity
            Not Before: May  7 14:59:42 2023 GMT
            Not After : May  6 14:59:42 2025 GMT
        Subject: C=ES, ST=Murcia, O=UMU, L=Murcia, OU=alterra0910, CN=oscar0910.org
        Subject Public Key Info:
            Public Key Algorithm: rsaEncryption
                Public-Key: (2048 bit)
                Modulus:
                    00:c0:47:7f:1e:f3:23:cb:2f:0a:97:52:00:82:01:
                    f7:fa:e3:97:fc:95:b0:9b:33:61:d8:68:9b:19:42:
                    5d:9f:c5:78:14:59:75:e4:07:75:bc:71:99:4d:e3:
                    e8:12:08:82:58:8f:93:22:ff:db:c5:fa:a1:17:0f:
                    6a:6a:61:95:77:ec:65:72:59:c0:95:f5:13:fa:b9:
                    89:1f:01:5e:e4:5c:c6:14:93:c1:2a:54:d2:11:92:
                    65:2e:eb:d5:ec:0a:8c:61:b3:0f:ce:c8:d9:c0:d2:
                    5d:d4:c3:1d:ad:03:46:a0:13:8b:95:7c:85:d3:2d:
                    ce:62:07:1c:5f:39:b0:e0:94:67:05:5d:81:9b:a9:
                    4a:5b:ea:af:69:cd:d6:a1:b5:2c:9a:60:a7:3d:0a:
                    10:07:08:25:68:d4:f0:5d:8c:2c:4e:66:29:44:d2:
                    ce:cd:ec:9f:1d:51:e0:3c:6b:57:22:cc:6a:2e:3b:
                    fe:13:62:86:57:6e:90:1e:9d:20:46:6b:97:ac:b3:
                    2e:50:53:37:e1:4a:35:f9:40:a3:47:08:54:3b:17:
                    a9:26:e4:e4:d5:f5:b5:e6:ac:6c:bd:ef:02:46:a2:
                    3a:f9:ba:c5:38:eb:cb:49:b0:b1:07:9b:33:01:85:
                    42:a8:92:52:43:30:23:be:fd:e1:40:d4:41:0a:14:
                    d8:b9
                Exponent: 65537 (0x10001)
        X509v3 extensions:
            X509v3 Basic Constraints: 
                CA:FALSE
            Netscape Comment: 
                OpenSSL Generated Certificate
            X509v3 Subject Key Identifier: 
                81:38:CE:9C:74:F8:B3:7D:CC:45:72:5F:B3:D7:87:E8:EC:F7:2E:2A
            X509v3 Authority Key Identifier: 
                keyid:54:C5:20:5C:B0:9D:44:BA:1D:AF:55:BE:A0:EC:BA:7A:49:A1:6A:C9

    Signature Algorithm: sha256WithRSAEncryption
         82:fa:30:0a:d5:98:22:09:fc:f0:9f:56:69:0d:01:a3:c4:ba:
         a1:a1:4a:c7:74:1b:43:f8:24:8b:8d:b4:38:93:a1:78:6a:97:
         56:d1:ee:3b:55:03:07:99:6a:27:21:40:06:fc:60:0b:0c:b6:
         65:38:6e:3d:1c:c6:88:87:f0:c5:68:b4:b5:58:c8:d7:44:ba:
         4d:09:b0:b0:48:4f:ec:e1:ce:12:90:f6:76:18:33:6b:d2:7e:
         7c:ef:f0:0b:2a:ec:7f:ec:68:6f:b2:48:e3:78:28:ed:ae:a1:
         77:30:09:7f:64:80:3f:b2:3b:92:cb:84:e2:06:48:b2:f7:ba:
         f1:6f:1d:c9:db:e7:e3:f8:e5:c9:a2:14:5f:9f:47:7c:77:50:
         96:ff:37:b9:06:ce:92:4d:f4:15:08:06:b1:7b:00:44:20:60:
         d4:69:e2:d2:5a:87:d7:7e:d5:b1:c9:22:ab:0f:21:50:07:ce:
         4d:85:c6:ac:33:7d:85:36:02:4f:cb:6b:95:28:0f:a0:56:2c:
         2e:f6:a1:ce:12:17:73:34:03:b7:99:3c:3f:88:c9:87:65:ab:
         fa:70:68:44:40:b6:80:dc:a0:73:c7:ff:ab:25:d8:cd:0b:3d:
         4e:0f:2a:30:11:47:3a:92:d0:35:cf:12:20:e8:18:5d:df:ca:
         81:40:20:bf
-----BEGIN CERTIFICATE-----
MIID0TCCArmgAwIBAgIBAjANBgkqhkiG9w0BAQsFADBwMQswCQYDVQQGEwJFUzEP
MA0GA1UECAwGTXVyY2lhMQ8wDQYDVQQHDAZNdXJjaWExDDAKBgNVBAoMA1VNVTEU
MBIGA1UECwwLYWx0ZXJyYTA5MTAxGzAZBgNVBAMMEmNhLmFsdGVycmEwOTEwLm9y
ZzAeFw0yMzA1MDcxNDU5NDJaFw0yNTA1MDYxNDU5NDJaMGsxCzAJBgNVBAYTAkVT
MQ8wDQYDVQQIDAZNdXJjaWExDDAKBgNVBAoMA1VNVTEPMA0GA1UEBwwGTXVyY2lh
MRQwEgYDVQQLDAthbHRlcnJhMDkxMDEWMBQGA1UEAwwNb3NjYXIwOTEwLm9yZzCC
ASIwDQYJKoZIhvcNAQEBBQADggEPADCCAQoCggEBAMBHfx7zI8svCpdSAIIB9/rj
l/yVsJszYdhomxlCXZ/FeBRZdeQHdbxxmU3j6BIIgliPkyL/28X6oRcPamphlXfs
ZXJZwJX1E/q5iR8BXuRcxhSTwSpU0hGSZS7r1ewKjGGzD87I2cDSXdTDHa0DRqAT
i5V8hdMtzmIHHF85sOCUZwVdgZupSlvqr2nN1qG1LJpgpz0KEAcIJWjU8F2MLE5m
KUTSzs3snx1R4DxrVyLMai47/hNihldukB6dIEZrl6yzLlBTN+FKNflAo0cIVDsX
qSbk5NX1teasbL3vAkaiOvm6xTjry0mwsQebMwGFQqiSUkMwI7794UDUQQoU2LkC
AwEAAaN7MHkwCQYDVR0TBAIwADAsBglghkgBhvhCAQ0EHxYdT3BlblNTTCBHZW5l
cmF0ZWQgQ2VydGlmaWNhdGUwHQYDVR0OBBYEFIE4zpx0+LN9zEVyX7PXh+js9y4q
MB8GA1UdIwQYMBaAFFTFIFywnUS6Ha9VvqDsunpJoWrJMA0GCSqGSIb3DQEBCwUA
A4IBAQCC+jAK1ZgiCfzwn1ZpDQGjxLqhoUrHdBtD+CSLjbQ4k6F4apdW0e47VQMH
mWonIUAG/GALDLZlOG49HMaIh/DFaLS1WMjXRLpNCbCwSE/s4c4SkPZ2GDNr0n58
7/ALKux/7GhvskjjeCjtrqF3MAl/ZIA/sjuSy4TiBkiy97rxbx3J2+fj+OXJohRf
n0d8d1CW/ze5Bs6STfQVCAaxewBEIGDUaeLSWofXftWxySKrDyFQB85NhcasM32F
NgJPy2uVKA+gViwu9qHOEhdzNAO3mTw/iMmHZav6cGhEQLaA3KBzx/+rJdjNCz1O
DyowEUc6ktA1zxIg6Bhd38qBQCC/
-----END CERTIFICATE-----
